target datalayout = "e-m:e-p270:32:32-p271:32:32-p272:64:64-i64:64-i128:128-f80:128-n8:16:32:64-S128"
target triple = "x86_64-pc-linux-gnu"

%"class.clang::DeclContext" = type { ptr, %union.anon.374, ptr, ptr }
%union.anon.374 = type { %"class.clang::DeclContext::RecordDeclBitfields" }
%"class.clang::DeclContext::RecordDeclBitfields" = type { i64 }
%"class.clang::DeclContext::decl_iterator" = type { ptr }

; Function Attrs: mustprogress nounwind uwtable
define linkonce_odr hidden void @_ZN5clang11DeclContext13decl_iteratorC2EPNS_4DeclE(ptr noundef nonnull align 8 dereferenceable(8) %0, ptr noundef %1) unnamed_addr #0 comdat align 2 {
  %3 = alloca ptr, align 8
  %4 = alloca ptr, align 8
  store ptr %0, ptr %3, align 8
  store ptr %1, ptr %4, align 8
  %5 = load ptr, ptr %3, align 8
  %6 = getelementptr inbounds nuw %"class.clang::DeclContext::decl_iterator", ptr %5, i32 0, i32 0
  %7 = load ptr, ptr %4, align 8
  store ptr %7, ptr %6, align 8
  ret void
}

; Function Attrs: mustprogress nounwind uwtable
define linkonce_odr hidden noundef zeroext i1 @_ZNK5clang11DeclContext25hasExternalLexicalStorageEv(ptr noundef nonnull align 8 dereferenceable(32) %0) #0 comdat align 2 {
  %2 = alloca ptr, align 8
  store ptr %0, ptr %2, align 8
  %3 = load ptr, ptr %2, align 8
  %4 = getelementptr inbounds nuw %"class.clang::DeclContext", ptr %3, i32 0, i32 1
  %5 = load i16, ptr %4, align 8
  %6 = lshr i16 %5, 7
  %7 = and i16 %6, 1
  %8 = zext i16 %7 to i64
  %9 = icmp ne i64 %8, 0
  ret i1 %9
}

; Function Attrs: mustprogress nounwind uwtable
define dso_local ptr @_ZNK5clang11DeclContext11decls_beginEv(ptr noundef nonnull align 8 dereferenceable(32) %0) #0 align 2 {
  %2 = alloca %"class.clang::DeclContext::decl_iterator", align 8
  %3 = alloca ptr, align 8
  store ptr %0, ptr %3, align 8
  %4 = load ptr, ptr %3, align 8
  %5 = call noundef zeroext i1 @_ZNK5clang11DeclContext25hasExternalLexicalStorageEv(ptr noundef nonnull align 8 dereferenceable(32) %4)
  br i1 %5, label %6, label %8

6:                                                ; preds = %1
  %7 = call noundef zeroext i1 @_ZNK5clang11DeclContext35LoadLexicalDeclsFromExternalStorageEv(ptr noundef nonnull align 8 dereferenceable(32) %4)
  br label %8

8:                                                ; preds = %6, %1
  %9 = getelementptr inbounds nuw %"class.clang::DeclContext", ptr %4, i32 0, i32 2
  %10 = load ptr, ptr %9, align 8
  call void @_ZN5clang11DeclContext13decl_iteratorC2EPNS_4DeclE(ptr noundef nonnull align 8 dereferenceable(8) %2, ptr noundef %10)
  %11 = getelementptr inbounds nuw %"class.clang::DeclContext::decl_iterator", ptr %2, i32 0, i32 0
  %12 = load ptr, ptr %11, align 8
  ret ptr %12
}