; Function Attrs: mustprogress nounwind uwtable
define dso_local ptr @_ZNK5clang11DeclContext11decls_beginEv(ptr noundef nonnull align 8 dereferenceable(32) %0) local_unnamed_addr #0 align 2 {
  %2 = getelementptr inbounds nuw i8, ptr %0, i64 8
  %3 = load i16, ptr %2, align 8
  %4 = and i16 %3, 128
  %.not = icmp eq i16 %4, 0
  br i1 %.not, label %7, label %5

5:                                                ; preds = %1
  %6 = tail call noundef zeroext i1 @_ZNK5clang11DeclContext35LoadLexicalDeclsFromExternalStorageEv(ptr noundef nonnull align 8 dereferenceable(32) %0)
  br label %7

7:                                                ; preds = %5, %1
  %8 = getelementptr inbounds nuw i8, ptr %0, i64 16
  %9 = load ptr, ptr %8, align 8
  ret ptr %9
}